; ModuleID = '36/1162.c'
source_filename = "36/1162.c"
target datalayout = "e-m:e-p270:32:32-p271:32:32-p272:64:64-i64:64-f80:128-n8:16:32:64-S128"
target triple = "x86_64-pc-linux-gnu"

@.str = private unnamed_addr constant [5 x i8] c"%s%s\00", align 1
@.str.1 = private unnamed_addr constant [4 x i8] c"YES\00", align 1
@.str.2 = private unnamed_addr constant [3 x i8] c"NO\00", align 1

; Function Attrs: noinline nounwind uwtable
define dso_local i32 @main(i32 %0, i8** %1) #0 {
  %3 = alloca i32, align 4
  %4 = alloca i32, align 4
  %5 = alloca i8**, align 8
  %6 = alloca [100 x i8], align 16
  %7 = alloca [100 x i8], align 16
  store i32 0, i32* %3, align 4
  store i32 %0, i32* %4, align 4
  store i8** %1, i8*** %5, align 8
  %8 = bitcast [100 x i8]* %6 to i8*
  call void @llvm.memset.p0i8.i64(i8* align 16 %8, i8 0, i64 100, i1 false)
  %9 = bitcast [100 x i8]* %7 to i8*
  call void @llvm.memset.p0i8.i64(i8* align 16 %9, i8 0, i64 100, i1 false)
  %10 = getelementptr inbounds [100 x i8], [100 x i8]* %6, i64 0, i64 0
  %11 = getelementptr inbounds [100 x i8], [100 x i8]* %7, i64 0, i64 0
  %12 = call i32 (i8*, ...) @__isoc99_scanf(i8* getelementptr inbounds ([5 x i8], [5 x i8]* @.str, i64 0, i64 0), i8* %10, i8* %11)
  %13 = getelementptr inbounds [100 x i8], [100 x i8]* %6, i64 0, i64 0
  %14 = getelementptr inbounds [100 x i8], [100 x i8]* %7, i64 0, i64 0
  %15 = call i32 @judge(i8* %13, i8* %14)
  %16 = icmp eq i32 %15, 1
  br i1 %16, label %17, label %19

17:                                               ; preds = %2
  %18 = call i32 (i8*, ...) @printf(i8* getelementptr inbounds ([4 x i8], [4 x i8]* @.str.1, i64 0, i64 0))
  br label %21

19:                                               ; preds = %2
  %20 = call i32 (i8*, ...) @printf(i8* getelementptr inbounds ([3 x i8], [3 x i8]* @.str.2, i64 0, i64 0))
  br label %21

21:                                               ; preds = %19, %17
  ret i32 0
}

; Function Attrs: argmemonly nounwind willreturn
declare void @llvm.memset.p0i8.i64(i8* nocapture writeonly, i8, i64, i1 immarg) #1

declare dso_local i32 @__isoc99_scanf(i8*, ...) #2

; Function Attrs: noinline nounwind uwtable
define dso_local i32 @judge(i8* %0, i8* %1) #0 {
  %3 = alloca i32, align 4
  %4 = alloca i8*, align 8
  %5 = alloca i8*, align 8
  %6 = alloca i32, align 4
  %7 = alloca i32, align 4
  store i8* %0, i8** %4, align 8
  store i8* %1, i8** %5, align 8
  store i32 0, i32* %6, align 4
  store i32 0, i32* %7, align 4
  %8 = load i8*, i8** %4, align 8
  %9 = call i64 @strlen(i8* %8) #4
  %10 = load i8*, i8** %5, align 8
  %11 = call i64 @strlen(i8* %10) #4
  %12 = icmp ne i64 %9, %11
  br i1 %12, label %13, label %14

13:                                               ; preds = %2
  store i32 0, i32* %3, align 4
  br label %80

14:                                               ; preds = %2
  store i32 0, i32* %6, align 4
  br label %15

15:                                               ; preds = %56, %14
  %16 = load i32, i32* %6, align 4
  %17 = sext i32 %16 to i64
  %18 = load i8*, i8** %4, align 8
  %19 = call i64 @strlen(i8* %18) #4
  %20 = icmp ult i64 %17, %19
  br i1 %20, label %21, label %59

21:                                               ; preds = %15
  store i32 0, i32* %7, align 4
  br label %22

22:                                               ; preds = %52, %21
  %23 = load i32, i32* %7, align 4
  %24 = sext i32 %23 to i64
  %25 = load i8*, i8** %4, align 8
  %26 = call i64 @strlen(i8* %25) #4
  %27 = icmp ult i64 %24, %26
  br i1 %27, label %28, label %55

28:                                               ; preds = %22
  %29 = load i8*, i8** %4, align 8
  %30 = load i32, i32* %6, align 4
  %31 = sext i32 %30 to i64
  %32 = getelementptr inbounds i8, i8* %29, i64 %31
  %33 = load i8, i8* %32, align 1
  %34 = sext i8 %33 to i32
  %35 = load i8*, i8** %5, align 8
  %36 = load i32, i32* %7, align 4
  %37 = sext i32 %36 to i64
  %38 = getelementptr inbounds i8, i8* %35, i64 %37
  %39 = load i8, i8* %38, align 1
  %40 = sext i8 %39 to i32
  %41 = icmp eq i32 %34, %40
  br i1 %41, label %42, label %51

42:                                               ; preds = %28
  %43 = load i8*, i8** %4, align 8
  %44 = load i32, i32* %6, align 4
  %45 = sext i32 %44 to i64
  %46 = getelementptr inbounds i8, i8* %43, i64 %45
  store i8 32, i8* %46, align 1
  %47 = load i8*, i8** %5, align 8
  %48 = load i32, i32* %7, align 4
  %49 = sext i32 %48 to i64
  %50 = getelementptr inbounds i8, i8* %47, i64 %49
  store i8 32, i8* %50, align 1
  br label %51

51:                                               ; preds = %42, %28
  br label %52

52:                                               ; preds = %51
  %53 = load i32, i32* %7, align 4
  %54 = add nsw i32 %53, 1
  store i32 %54, i32* %7, align 4
  br label %22

55:                                               ; preds = %22
  br label %56

56:                                               ; preds = %55
  %57 = load i32, i32* %6, align 4
  %58 = add nsw i32 %57, 1
  store i32 %58, i32* %6, align 4
  br label %15

59:                                               ; preds = %15
  store i32 0, i32* %6, align 4
  br label %60

60:                                               ; preds = %76, %59
  %61 = load i32, i32* %6, align 4
  %62 = sext i32 %61 to i64
  %63 = load i8*, i8** %4, align 8
  %64 = call i64 @strlen(i8* %63) #4
  %65 = icmp ult i64 %62, %64
  br i1 %65, label %66, label %79

66:                                               ; preds = %60
  %67 = load i8*, i8** %4, align 8
  %68 = load i32, i32* %6, align 4
  %69 = sext i32 %68 to i64
  %70 = getelementptr inbounds i8, i8* %67, i64 %69
  %71 = load i8, i8* %70, align 1
  %72 = sext i8 %71 to i32
  %73 = icmp ne i32 %72, 32
  br i1 %73, label %74, label %75

74:                                               ; preds = %66
  store i32 0, i32* %3, align 4
  br label %80

75:                                               ; preds = %66
  br label %76

76:                                               ; preds = %75
  %77 = load i32, i32* %6, align 4
  %78 = add nsw i32 %77, 1
  store i32 %78, i32* %6, align 4
  br label %60

79:                                               ; preds = %60
  store i32 1, i32* %3, align 4
  br label %80

80:                                               ; preds = %79, %74, %13
  %81 = load i32, i32* %3, align 4
  ret i32 %81
}

declare dso_local i32 @printf(i8*, ...) #2

; Function Attrs: nounwind readonly
declare dso_local i64 @strlen(i8*) #3


!llvm.module.flags = !{!0}
!llvm.ident = !{!1}

!0 = !{i32 1, !"wchar_size", i32 4}
!1 = !{!"clang version 10.0.0-4ubuntu1 "}
